target datalayout = "e-m:e-p270:32:32-p271:32:32-p272:64:64-i64:64-i128:128-f80:128-n8:16:32:64-S128"
target triple = "x86_64-pc-linux-gnu"

%"class.gmx::internal::AnalysisDataStorageImpl" = type <{ ptr, ptr, i32, i32, %"class.std::vector", i64, i32, [4 x i8], %"class.std::vector.0", i32, [4 x i8] }>
%"class.std::vector" = type { %"struct.std::_Vector_base" }
%"struct.std::_Vector_base" = type { %"struct.std::_Vector_base<std::unique_ptr<gmx::internal::AnalysisDataStorageFrameData>, std::allocator<std::unique_ptr<gmx::internal::AnalysisDataStorageFrameData>>>::_Vector_impl" }
%"struct.std::_Vector_base<std::unique_ptr<gmx::internal::AnalysisDataStorageFrameData>, std::allocator<std::unique_ptr<gmx::internal::AnalysisDataStorageFrameData>>>::_Vector_impl" = type { %"struct.std::_Vector_base<std::unique_ptr<gmx::internal::AnalysisDataStorageFrameData>, std::allocator<std::unique_ptr<gmx::internal::AnalysisDataStorageFrameData>>>::_Vector_impl_data" }
%"struct.std::_Vector_base<std::unique_ptr<gmx::internal::AnalysisDataStorageFrameData>, std::allocator<std::unique_ptr<gmx::internal::AnalysisDataStorageFrameData>>>::_Vector_impl_data" = type { ptr, ptr, ptr }
%"class.std::vector.0" = type { %"struct.std::_Vector_base.1" }
%"struct.std::_Vector_base.1" = type { %"struct.std::_Vector_base<std::unique_ptr<gmx::AnalysisDataStorageFrame>, std::allocator<std::unique_ptr<gmx::AnalysisDataStorageFrame>>>::_Vector_impl" }
%"struct.std::_Vector_base<std::unique_ptr<gmx::AnalysisDataStorageFrame>, std::allocator<std::unique_ptr<gmx::AnalysisDataStorageFrame>>>::_Vector_impl" = type { %"struct.std::_Vector_base<std::unique_ptr<gmx::AnalysisDataStorageFrame>, std::allocator<std::unique_ptr<gmx::AnalysisDataStorageFrame>>>::_Vector_impl_data" }
%"struct.std::_Vector_base<std::unique_ptr<gmx::AnalysisDataStorageFrame>, std::allocator<std::unique_ptr<gmx::AnalysisDataStorageFrame>>>::_Vector_impl_data" = type { ptr, ptr, ptr }

; Function Attrs: mustprogress nounwind uwtable
define linkonce_odr void @_ZNSt15__new_allocatorISt10unique_ptrIN3gmx24AnalysisDataStorageFrameESt14default_deleteIS2_EEEC2Ev(ptr noundef nonnull align 1 dereferenceable(1) %0) unnamed_addr #0 comdat align 2 {
  %2 = alloca ptr, align 8
  store ptr %0, ptr %2, align 8
  ret void
}

; Function Attrs: mustprogress nounwind uwtable
define linkonce_odr void @_ZNSt15__new_allocatorISt10unique_ptrIN3gmx8internal28AnalysisDataStorageFrameDataESt14default_deleteIS3_EEEC2Ev(ptr noundef nonnull align 1 dereferenceable(1) %0) unnamed_addr #0 comdat align 2 {
  %2 = alloca ptr, align 8
  store ptr %0, ptr %2, align 8
  ret void
}

; Function Attrs: mustprogress nounwind uwtable
define linkonce_odr void @_ZNSt12_Vector_baseISt10unique_ptrIN3gmx24AnalysisDataStorageFrameESt14default_deleteIS2_EESaIS5_EE17_Vector_impl_dataC2Ev(ptr noundef nonnull align 8 dereferenceable(24) %0) unnamed_addr #0 comdat align 2 {
  %2 = alloca ptr, align 8
  store ptr %0, ptr %2, align 8
  %3 = load ptr, ptr %2, align 8
  %4 = getelementptr inbounds %"struct.std::_Vector_base<std::unique_ptr<gmx::AnalysisDataStorageFrame>, std::allocator<std::unique_ptr<gmx::AnalysisDataStorageFrame>>>::_Vector_impl_data", ptr %3, i32 0, i32 0
  store ptr null, ptr %4, align 8
  %5 = getelementptr inbounds %"struct.std::_Vector_base<std::unique_ptr<gmx::AnalysisDataStorageFrame>, std::allocator<std::unique_ptr<gmx::AnalysisDataStorageFrame>>>::_Vector_impl_data", ptr %3, i32 0, i32 1
  store ptr null, ptr %5, align 8
  %6 = getelementptr inbounds %"struct.std::_Vector_base<std::unique_ptr<gmx::AnalysisDataStorageFrame>, std::allocator<std::unique_ptr<gmx::AnalysisDataStorageFrame>>>::_Vector_impl_data", ptr %3, i32 0, i32 2
  store ptr null, ptr %6, align 8
  ret void
}

; Function Attrs: mustprogress nounwind uwtable
define linkonce_odr void @_ZNSaISt10unique_ptrIN3gmx24AnalysisDataStorageFrameESt14default_deleteIS1_EEEC2Ev(ptr noundef nonnull align 1 dereferenceable(1) %0) unnamed_addr #0 comdat align 2 {
  %2 = alloca ptr, align 8
  store ptr %0, ptr %2, align 8
  %3 = load ptr, ptr %2, align 8
  call void @_ZNSt15__new_allocatorISt10unique_ptrIN3gmx24AnalysisDataStorageFrameESt14default_deleteIS2_EEEC2Ev(ptr noundef nonnull align 1 dereferenceable(1) %3) #12
  ret void
}

; Function Attrs: mustprogress nounwind uwtable
define linkonce_odr void @_ZNSt12_Vector_baseISt10unique_ptrIN3gmx8internal28AnalysisDataStorageFrameDataESt14default_deleteIS3_EESaIS6_EE17_Vector_impl_dataC2Ev(ptr noundef nonnull align 8 dereferenceable(24) %0) unnamed_addr #0 comdat align 2 {
  %2 = alloca ptr, align 8
  store ptr %0, ptr %2, align 8
  %3 = load ptr, ptr %2, align 8
  %4 = getelementptr inbounds %"struct.std::_Vector_base<std::unique_ptr<gmx::internal::AnalysisDataStorageFrameData>, std::allocator<std::unique_ptr<gmx::internal::AnalysisDataStorageFrameData>>>::_Vector_impl_data", ptr %3, i32 0, i32 0
  store ptr null, ptr %4, align 8
  %5 = getelementptr inbounds %"struct.std::_Vector_base<std::unique_ptr<gmx::internal::AnalysisDataStorageFrameData>, std::allocator<std::unique_ptr<gmx::internal::AnalysisDataStorageFrameData>>>::_Vector_impl_data", ptr %3, i32 0, i32 1
  store ptr null, ptr %5, align 8
  %6 = getelementptr inbounds %"struct.std::_Vector_base<std::unique_ptr<gmx::internal::AnalysisDataStorageFrameData>, std::allocator<std::unique_ptr<gmx::internal::AnalysisDataStorageFrameData>>>::_Vector_impl_data", ptr %3, i32 0, i32 2
  store ptr null, ptr %6, align 8
  ret void
}

; Function Attrs: mustprogress nounwind uwtable
define linkonce_odr void @_ZNSaISt10unique_ptrIN3gmx8internal28AnalysisDataStorageFrameDataESt14default_deleteIS2_EEEC2Ev(ptr noundef nonnull align 1 dereferenceable(1) %0) unnamed_addr #0 comdat align 2 {
  %2 = alloca ptr, align 8
  store ptr %0, ptr %2, align 8
  %3 = load ptr, ptr %2, align 8
  call void @_ZNSt15__new_allocatorISt10unique_ptrIN3gmx8internal28AnalysisDataStorageFrameDataESt14default_deleteIS3_EEEC2Ev(ptr noundef nonnull align 1 dereferenceable(1) %3) #12
  ret void
}

; Function Attrs: mustprogress nounwind uwtable
define linkonce_odr void @_ZNSt12_Vector_baseISt10unique_ptrIN3gmx24AnalysisDataStorageFrameESt14default_deleteIS2_EESaIS5_EE12_Vector_implC2Ev(ptr noundef nonnull align 8 dereferenceable(24) %0) unnamed_addr #0 comdat align 2 {
  %2 = alloca ptr, align 8
  store ptr %0, ptr %2, align 8
  %3 = load ptr, ptr %2, align 8
  call void @_ZNSaISt10unique_ptrIN3gmx24AnalysisDataStorageFrameESt14default_deleteIS1_EEEC2Ev(ptr noundef nonnull align 1 dereferenceable(1) %3) #12
  call void @_ZNSt12_Vector_baseISt10unique_ptrIN3gmx24AnalysisDataStorageFrameESt14default_deleteIS2_EESaIS5_EE17_Vector_impl_dataC2Ev(ptr noundef nonnull align 8 dereferenceable(24) %3) #12
  ret void
}

; Function Attrs: mustprogress nounwind uwtable
define linkonce_odr void @_ZNSt12_Vector_baseISt10unique_ptrIN3gmx8internal28AnalysisDataStorageFrameDataESt14default_deleteIS3_EESaIS6_EE12_Vector_implC2Ev(ptr noundef nonnull align 8 dereferenceable(24) %0) unnamed_addr #0 comdat align 2 {
  %2 = alloca ptr, align 8
  store ptr %0, ptr %2, align 8
  %3 = load ptr, ptr %2, align 8
  call void @_ZNSaISt10unique_ptrIN3gmx8internal28AnalysisDataStorageFrameDataESt14default_deleteIS2_EEEC2Ev(ptr noundef nonnull align 1 dereferenceable(1) %3) #12
  call void @_ZNSt12_Vector_baseISt10unique_ptrIN3gmx8internal28AnalysisDataStorageFrameDataESt14default_deleteIS3_EESaIS6_EE17_Vector_impl_dataC2Ev(ptr noundef nonnull align 8 dereferenceable(24) %3) #12
  ret void
}

; Function Attrs: mustprogress nounwind uwtable
define linkonce_odr void @_ZNSt12_Vector_baseISt10unique_ptrIN3gmx24AnalysisDataStorageFrameESt14default_deleteIS2_EESaIS5_EEC2Ev(ptr noundef nonnull align 8 dereferenceable(24) %0) unnamed_addr #0 comdat align 2 {
  %2 = alloca ptr, align 8
  store ptr %0, ptr %2, align 8
  %3 = load ptr, ptr %2, align 8
  %4 = getelementptr inbounds %"struct.std::_Vector_base.1", ptr %3, i32 0, i32 0
  call void @_ZNSt12_Vector_baseISt10unique_ptrIN3gmx24AnalysisDataStorageFrameESt14default_deleteIS2_EESaIS5_EE12_Vector_implC2Ev(ptr noundef nonnull align 8 dereferenceable(24) %4) #12
  ret void
}

; Function Attrs: mustprogress nounwind uwtable
define linkonce_odr void @_ZNSt12_Vector_baseISt10unique_ptrIN3gmx8internal28AnalysisDataStorageFrameDataESt14default_deleteIS3_EESaIS6_EEC2Ev(ptr noundef nonnull align 8 dereferenceable(24) %0) unnamed_addr #0 comdat align 2 {
  %2 = alloca ptr, align 8
  store ptr %0, ptr %2, align 8
  %3 = load ptr, ptr %2, align 8
  %4 = getelementptr inbounds %"struct.std::_Vector_base", ptr %3, i32 0, i32 0
  call void @_ZNSt12_Vector_baseISt10unique_ptrIN3gmx8internal28AnalysisDataStorageFrameDataESt14default_deleteIS3_EESaIS6_EE12_Vector_implC2Ev(ptr noundef nonnull align 8 dereferenceable(24) %4) #12
  ret void
}

; Function Attrs: mustprogress nounwind uwtable
define linkonce_odr void @_ZNSt6vectorISt10unique_ptrIN3gmx24AnalysisDataStorageFrameESt14default_deleteIS2_EESaIS5_EEC2Ev(ptr noundef nonnull align 8 dereferenceable(24) %0) unnamed_addr #0 comdat align 2 {
  %2 = alloca ptr, align 8
  store ptr %0, ptr %2, align 8
  %3 = load ptr, ptr %2, align 8
  call void @_ZNSt12_Vector_baseISt10unique_ptrIN3gmx24AnalysisDataStorageFrameESt14default_deleteIS2_EESaIS5_EEC2Ev(ptr noundef nonnull align 8 dereferenceable(24) %3) #12
  ret void
}

; Function Attrs: mustprogress nounwind uwtable
define linkonce_odr void @_ZNSt6vectorISt10unique_ptrIN3gmx8internal28AnalysisDataStorageFrameDataESt14default_deleteIS3_EESaIS6_EEC2Ev(ptr noundef nonnull align 8 dereferenceable(24) %0) unnamed_addr #0 comdat align 2 {
  %2 = alloca ptr, align 8
  store ptr %0, ptr %2, align 8
  %3 = load ptr, ptr %2, align 8
  call void @_ZNSt12_Vector_baseISt10unique_ptrIN3gmx8internal28AnalysisDataStorageFrameDataESt14default_deleteIS3_EESaIS6_EEC2Ev(ptr noundef nonnull align 8 dereferenceable(24) %3) #12
  ret void
}

; Function Attrs: mustprogress nounwind uwtable
define void @_ZN3gmx8internal23AnalysisDataStorageImplC2Ev(ptr noundef nonnull align 8 dereferenceable(92) %0) unnamed_addr #0 align 2 {
  %2 = alloca ptr, align 8
  store ptr %0, ptr %2, align 8
  %3 = load ptr, ptr %2, align 8
  %4 = getelementptr inbounds %"class.gmx::internal::AnalysisDataStorageImpl", ptr %3, i32 0, i32 0
  store ptr null, ptr %4, align 8
  %5 = getelementptr inbounds %"class.gmx::internal::AnalysisDataStorageImpl", ptr %3, i32 0, i32 1
  store ptr null, ptr %5, align 8
  %6 = getelementptr inbounds %"class.gmx::internal::AnalysisDataStorageImpl", ptr %3, i32 0, i32 2
  store i32 0, ptr %6, align 8
  %7 = getelementptr inbounds %"class.gmx::internal::AnalysisDataStorageImpl", ptr %3, i32 0, i32 3
  store i32 1, ptr %7, align 4
  %8 = getelementptr inbounds %"class.gmx::internal::AnalysisDataStorageImpl", ptr %3, i32 0, i32 4
  call void @_ZNSt6vectorISt10unique_ptrIN3gmx8internal28AnalysisDataStorageFrameDataESt14default_deleteIS3_EESaIS6_EEC2Ev(ptr noundef nonnull align 8 dereferenceable(24) %8) #12
  %9 = getelementptr inbounds %"class.gmx::internal::AnalysisDataStorageImpl", ptr %3, i32 0, i32 5
  store i64 0, ptr %9, align 8
  %10 = getelementptr inbounds %"class.gmx::internal::AnalysisDataStorageImpl", ptr %3, i32 0, i32 6
  store i32 0, ptr %10, align 8
  %11 = getelementptr inbounds %"class.gmx::internal::AnalysisDataStorageImpl", ptr %3, i32 0, i32 8
  call void @_ZNSt6vectorISt10unique_ptrIN3gmx24AnalysisDataStorageFrameESt14default_deleteIS2_EESaIS5_EEC2Ev(ptr noundef nonnull align 8 dereferenceable(24) %11) #12
  %12 = getelementptr inbounds %"class.gmx::internal::AnalysisDataStorageImpl", ptr %3, i32 0, i32 9
  store i32 0, ptr %12, align 8
  ret void
}